; Function Attrs: mustprogress uwtable
define void @_ZN5boost10test_tools9tt_detail15print_log_valueIbEclERSob(ptr nocapture noundef nonnull readnone align 1 dereferenceable(1) %0, ptr noundef nonnull align 8 dereferenceable(8) %1, i1 noundef zeroext %2) local_unnamed_addr #3 align 2 {
  %4 = load ptr, ptr %1, align 8, !tbaa !3
  %5 = getelementptr i8, ptr %4, i64 -24
  %6 = load i64, ptr %5, align 8
  %7 = getelementptr inbounds i8, ptr %1, i64 %6
  %8 = getelementptr inbounds nuw i8, ptr %7, i64 24
  %9 = load i32, ptr %8, align 8, !tbaa !6
  %10 = or i32 %9, 1
  store i32 %10, ptr %8, align 4, !tbaa !6
  %11 = tail call noundef nonnull align 8 dereferenceable(8) ptr @_ZNSo9_M_insertIbEERSoT_(ptr noundef nonnull align 8 dereferenceable(8) %1, i1 noundef zeroext %2)
  ret void
}